; Function Attrs: nounwind uwtable
define ptr @l_Std_Time_Timestamp_toDays(ptr noundef readonly captures(none) %0) local_unnamed_addr #0 {
  %2 = getelementptr inbounds nuw i8, ptr %0, i64 8
  %3 = load ptr, ptr %2, align 8, !tbaa !4
  %4 = load ptr, ptr @l_Std_Time_Timestamp_toDays___closed__1, align 8, !tbaa !4
  %5 = ptrtoint ptr %3 to i64
  %6 = and i64 %5, 1
  %.not.i = icmp eq i64 %6, 0
  br i1 %.not.i, label %.critedge.i, label %7, !prof !8

7:                                                ; preds = %1
  %8 = ptrtoint ptr %4 to i64
  %9 = and i64 %8, 1
  %.not18.i = icmp eq i64 %9, 0
  br i1 %.not18.i, label %.critedge.i, label %10, !prof !8

10:                                               ; preds = %7
  %11 = lshr i64 %8, 1
  %12 = trunc i64 %11 to i32
  %13 = icmp eq i32 %12, 0
  br i1 %13, label %lean_int_ediv.exit, label %14

14:                                               ; preds = %10
  %sext.i = shl i64 %11, 32
  %15 = ashr exact i64 %sext.i, 32
  %16 = shl i64 %5, 31
  %17 = ashr i64 %16, 32
  %18 = sdiv i64 %17, %15
  %19 = srem i64 %17, %15
  %20 = icmp slt i64 %19, 0
  %21 = icmp sgt i32 %12, 0
  %.v.i = select i1 %21, i64 -1, i64 1
  %22 = select i1 %20, i64 %.v.i, i64 0
  %.016.i = add nsw i64 %22, %18
  %23 = add nsw i64 %.016.i, 2147483648
  %24 = icmp ult i64 %23, 4294967296
  br i1 %24, label %25, label %30, !prof !14

25:                                               ; preds = %14
  %26 = shl nsw i64 %.016.i, 1
  %27 = and i64 %26, 8589934590
  %28 = or disjoint i64 %27, 1
  %29 = inttoptr i64 %28 to ptr
  br label %lean_int_ediv.exit

30:                                               ; preds = %14
  %31 = tail call ptr @lean_big_int64_to_int(i64 noundef range(i64 -4611686016279904256, 4611686018427387905) %.016.i) #4
  br label %lean_int_ediv.exit

.critedge.i:                                      ; preds = %7, %1
  %32 = tail call ptr @lean_int_big_ediv(ptr noundef %3, ptr noundef %4) #4
  br label %lean_int_ediv.exit

lean_int_ediv.exit:                               ; preds = %10, %25, %30, %.critedge.i
  %.1.i = phi ptr [ %32, %.critedge.i ], [ inttoptr (i64 1 to ptr), %10 ], [ %29, %25 ], [ %31, %30 ]
  ret ptr %.1.i
}